target datalayout = "e-m:e-p270:32:32-p271:32:32-p272:64:64-i64:64-i128:128-f80:128-n8:16:32:64-S128"
target triple = "x86_64-unknown-linux-gnu"

%"class.QuantLib::MarketModelComposite" = type { %"class.QuantLib::MarketModelMultiProduct", %"class.std::vector", %"class.std::vector.0", %"class.std::vector.0", %"class.QuantLib::EvolutionDescription", i8, i64, %"class.std::vector.0", %"class.std::vector.15", %"class.std::vector.20" }
%"class.QuantLib::MarketModelMultiProduct" = type { ptr }
%"class.std::vector" = type { %"struct.std::_Vector_base" }
%"struct.std::_Vector_base" = type { %"struct.std::_Vector_base<QuantLib::MarketModelComposite::SubProduct, std::allocator<QuantLib::MarketModelComposite::SubProduct>>::_Vector_impl" }
%"struct.std::_Vector_base<QuantLib::MarketModelComposite::SubProduct, std::allocator<QuantLib::MarketModelComposite::SubProduct>>::_Vector_impl" = type { %"struct.std::_Vector_base<QuantLib::MarketModelComposite::SubProduct, std::allocator<QuantLib::MarketModelComposite::SubProduct>>::_Vector_impl_data" }
%"struct.std::_Vector_base<QuantLib::MarketModelComposite::SubProduct, std::allocator<QuantLib::MarketModelComposite::SubProduct>>::_Vector_impl_data" = type { ptr, ptr, ptr }
%"class.QuantLib::EvolutionDescription" = type { i64, %"class.std::vector.0", %"class.std::vector.0", %"class.std::vector.5", %"class.std::vector.0", %"class.std::vector.10" }
%"class.std::vector.5" = type { %"struct.std::_Vector_base.6" }
%"struct.std::_Vector_base.6" = type { %"struct.std::_Vector_base<std::pair<unsigned long, unsigned long>, std::allocator<std::pair<unsigned long, unsigned long>>>::_Vector_impl" }
%"struct.std::_Vector_base<std::pair<unsigned long, unsigned long>, std::allocator<std::pair<unsigned long, unsigned long>>>::_Vector_impl" = type { %"struct.std::_Vector_base<std::pair<unsigned long, unsigned long>, std::allocator<std::pair<unsigned long, unsigned long>>>::_Vector_impl_data" }
%"struct.std::_Vector_base<std::pair<unsigned long, unsigned long>, std::allocator<std::pair<unsigned long, unsigned long>>>::_Vector_impl_data" = type { ptr, ptr, ptr }
%"class.std::vector.10" = type { %"struct.std::_Vector_base.11" }
%"struct.std::_Vector_base.11" = type { %"struct.std::_Vector_base<unsigned long, std::allocator<unsigned long>>::_Vector_impl" }
%"struct.std::_Vector_base<unsigned long, std::allocator<unsigned long>>::_Vector_impl" = type { %"struct.std::_Vector_base<unsigned long, std::allocator<unsigned long>>::_Vector_impl_data" }
%"struct.std::_Vector_base<unsigned long, std::allocator<unsigned long>>::_Vector_impl_data" = type { ptr, ptr, ptr }
%"class.std::vector.0" = type { %"struct.std::_Vector_base.1" }
%"struct.std::_Vector_base.1" = type { %"struct.std::_Vector_base<double, std::allocator<double>>::_Vector_impl" }
%"struct.std::_Vector_base<double, std::allocator<double>>::_Vector_impl" = type { %"struct.std::_Vector_base<double, std::allocator<double>>::_Vector_impl_data" }
%"struct.std::_Vector_base<double, std::allocator<double>>::_Vector_impl_data" = type { ptr, ptr, ptr }
%"class.std::vector.15" = type { %"struct.std::_Vector_base.16" }
%"struct.std::_Vector_base.16" = type { %"struct.std::_Vector_base<std::vector<double>, std::allocator<std::vector<double>>>::_Vector_impl" }
%"struct.std::_Vector_base<std::vector<double>, std::allocator<std::vector<double>>>::_Vector_impl" = type { %"struct.std::_Vector_base<std::vector<double>, std::allocator<std::vector<double>>>::_Vector_impl_data" }
%"struct.std::_Vector_base<std::vector<double>, std::allocator<std::vector<double>>>::_Vector_impl_data" = type { ptr, ptr, ptr }
%"class.std::vector.20" = type { %"struct.std::_Vector_base.21" }
%"struct.std::_Vector_base.21" = type { %"struct.std::_Vector_base<std::valarray<bool>, std::allocator<std::valarray<bool>>>::_Vector_impl" }
%"struct.std::_Vector_base<std::valarray<bool>, std::allocator<std::valarray<bool>>>::_Vector_impl" = type { %"struct.std::_Vector_base<std::valarray<bool>, std::allocator<std::valarray<bool>>>::_Vector_impl_data" }
%"struct.std::_Vector_base<std::valarray<bool>, std::allocator<std::valarray<bool>>>::_Vector_impl_data" = type { ptr, ptr, ptr }
%"struct.QuantLib::MarketModelComposite::SubProduct" = type <{ %"class.QuantLib::Clone", double, %"class.std::vector.10", %"class.std::vector.30", %"class.std::vector.10", i8, [7 x i8] }>
%"class.QuantLib::Clone" = type { %"class.std::unique_ptr" }
%"class.std::unique_ptr" = type { %"struct.std::__uniq_ptr_data" }
%"struct.std::__uniq_ptr_data" = type { %"class.std::__uniq_ptr_impl" }
%"class.std::__uniq_ptr_impl" = type { %"class.std::tuple" }
%"class.std::tuple" = type { %"struct.std::_Tuple_impl" }
%"struct.std::_Tuple_impl" = type { %"struct.std::_Head_base.29" }
%"struct.std::_Head_base.29" = type { ptr }
%"class.std::vector.30" = type { %"struct.std::_Vector_base.31" }
%"struct.std::_Vector_base.31" = type { %"struct.std::_Vector_base<std::vector<QuantLib::MarketModelMultiProduct::CashFlow>, std::allocator<std::vector<QuantLib::MarketModelMultiProduct::CashFlow>>>::_Vector_impl" }
%"struct.std::_Vector_base<std::vector<QuantLib::MarketModelMultiProduct::CashFlow>, std::allocator<std::vector<QuantLib::MarketModelMultiProduct::CashFlow>>>::_Vector_impl" = type { %"struct.std::_Vector_base<std::vector<QuantLib::MarketModelMultiProduct::CashFlow>, std::allocator<std::vector<QuantLib::MarketModelMultiProduct::CashFlow>>>::_Vector_impl_data" }
%"struct.std::_Vector_base<std::vector<QuantLib::MarketModelMultiProduct::CashFlow>, std::allocator<std::vector<QuantLib::MarketModelMultiProduct::CashFlow>>>::_Vector_impl_data" = type { ptr, ptr, ptr }

@.str.11 = private unnamed_addr constant [74 x i8] c"vector::_M_range_check: __n (which is %zu) >= this->size() (which is %zu)\00", align 1

; Function Attrs: mustprogress nounwind uwtable
define linkonce_odr noundef i64 @_ZNKSt6vectorIN8QuantLib20MarketModelComposite10SubProductESaIS2_EE4sizeEv(ptr noundef nonnull align 8 dereferenceable(24) %this) #3 comdat align 2 {
entry:
  %this.addr = alloca ptr, align 8
  store ptr %this, ptr %this.addr, align 8, !tbaa !3
  %this1 = load ptr, ptr %this.addr, align 8
  %_M_impl = getelementptr inbounds nuw %"struct.std::_Vector_base", ptr %this1, i32 0, i32 0
  %_M_finish = getelementptr inbounds nuw %"struct.std::_Vector_base<QuantLib::MarketModelComposite::SubProduct, std::allocator<QuantLib::MarketModelComposite::SubProduct>>::_Vector_impl_data", ptr %_M_impl, i32 0, i32 1
  %0 = load ptr, ptr %_M_finish, align 8, !tbaa !64
  %_M_impl2 = getelementptr inbounds nuw %"struct.std::_Vector_base", ptr %this1, i32 0, i32 0
  %_M_start = getelementptr inbounds nuw %"struct.std::_Vector_base<QuantLib::MarketModelComposite::SubProduct, std::allocator<QuantLib::MarketModelComposite::SubProduct>>::_Vector_impl_data", ptr %_M_impl2, i32 0, i32 0
  %1 = load ptr, ptr %_M_start, align 8, !tbaa !86
  %sub.ptr.lhs.cast = ptrtoint ptr %0 to i64
  %sub.ptr.rhs.cast = ptrtoint ptr %1 to i64
  %sub.ptr.sub = sub i64 %sub.ptr.lhs.cast, %sub.ptr.rhs.cast
  %sub.ptr.div = sdiv exact i64 %sub.ptr.sub, 96
  ret i64 %sub.ptr.div
}

; Function Attrs: mustprogress nounwind uwtable
define linkonce_odr noundef nonnull align 8 dereferenceable(89) ptr @_ZNSt6vectorIN8QuantLib20MarketModelComposite10SubProductESaIS2_EEixEm(ptr noundef nonnull align 8 dereferenceable(24) %this, i64 noundef %__n) #3 comdat align 2 {
entry:
  %this.addr = alloca ptr, align 8
  %__n.addr = alloca i64, align 8
  store ptr %this, ptr %this.addr, align 8, !tbaa !3
  store i64 %__n, ptr %__n.addr, align 8, !tbaa !70
  %this1 = load ptr, ptr %this.addr, align 8
  %_M_impl = getelementptr inbounds nuw %"struct.std::_Vector_base", ptr %this1, i32 0, i32 0
  %_M_start = getelementptr inbounds nuw %"struct.std::_Vector_base<QuantLib::MarketModelComposite::SubProduct, std::allocator<QuantLib::MarketModelComposite::SubProduct>>::_Vector_impl_data", ptr %_M_impl, i32 0, i32 0
  %0 = load ptr, ptr %_M_start, align 8, !tbaa !86
  %1 = load i64, ptr %__n.addr, align 8, !tbaa !70
  %add.ptr = getelementptr inbounds nuw %"struct.QuantLib::MarketModelComposite::SubProduct", ptr %0, i64 %1
  ret ptr %add.ptr
}

; Function Attrs: mustprogress uwtable
define linkonce_odr void @_ZNKSt6vectorIN8QuantLib20MarketModelComposite10SubProductESaIS2_EE14_M_range_checkEm(ptr noundef nonnull align 8 dereferenceable(24) %this, i64 noundef %__n) #0 comdat align 2 {
entry:
  %this.addr = alloca ptr, align 8
  %__n.addr = alloca i64, align 8
  store ptr %this, ptr %this.addr, align 8, !tbaa !3
  store i64 %__n, ptr %__n.addr, align 8, !tbaa !70
  %this1 = load ptr, ptr %this.addr, align 8
  %0 = load i64, ptr %__n.addr, align 8, !tbaa !70
  %call = call noundef i64 @_ZNKSt6vectorIN8QuantLib20MarketModelComposite10SubProductESaIS2_EE4sizeEv(ptr noundef nonnull align 8 dereferenceable(24) %this1) #18
  %cmp = icmp uge i64 %0, %call
  br i1 %cmp, label %if.then, label %if.end

if.then:                                          ; preds = %entry
  %1 = load i64, ptr %__n.addr, align 8, !tbaa !70
  %call2 = call noundef i64 @_ZNKSt6vectorIN8QuantLib20MarketModelComposite10SubProductESaIS2_EE4sizeEv(ptr noundef nonnull align 8 dereferenceable(24) %this1) #18
  call void (ptr, ...) @_ZSt24__throw_out_of_range_fmtPKcz(ptr noundef @.str.11, i64 noundef %1, i64 noundef %call2) #19
  unreachable

if.end:                                           ; preds = %entry
  ret void
}

; Function Attrs: mustprogress uwtable
define linkonce_odr noundef nonnull align 8 dereferenceable(89) ptr @_ZNSt6vectorIN8QuantLib20MarketModelComposite10SubProductESaIS2_EE2atEm(ptr noundef nonnull align 8 dereferenceable(24) %this, i64 noundef %__n) #0 comdat align 2 {
entry:
  %this.addr = alloca ptr, align 8
  %__n.addr = alloca i64, align 8
  store ptr %this, ptr %this.addr, align 8, !tbaa !3
  store i64 %__n, ptr %__n.addr, align 8, !tbaa !70
  %this1 = load ptr, ptr %this.addr, align 8
  %0 = load i64, ptr %__n.addr, align 8, !tbaa !70
  call void @_ZNKSt6vectorIN8QuantLib20MarketModelComposite10SubProductESaIS2_EE14_M_range_checkEm(ptr noundef nonnull align 8 dereferenceable(24) %this1, i64 noundef %0)
  %1 = load i64, ptr %__n.addr, align 8, !tbaa !70
  %call = call noundef nonnull align 8 dereferenceable(89) ptr @_ZNSt6vectorIN8QuantLib20MarketModelComposite10SubProductESaIS2_EEixEm(ptr noundef nonnull align 8 dereferenceable(24) %this1, i64 noundef %1) #18
  ret ptr %call
}

; Function Attrs: mustprogress uwtable
define noundef nonnull align 8 dereferenceable(8) ptr @_ZN8QuantLib20MarketModelComposite4itemEm(ptr noundef nonnull align 8 dereferenceable(296) %this, i64 noundef %i) #0 align 2 {
entry:
  %this.addr = alloca ptr, align 8
  %i.addr = alloca i64, align 8
  store ptr %this, ptr %this.addr, align 8, !tbaa !3
  store i64 %i, ptr %i.addr, align 8, !tbaa !70
  %this1 = load ptr, ptr %this.addr, align 8
  %components_ = getelementptr inbounds nuw %"class.QuantLib::MarketModelComposite", ptr %this1, i32 0, i32 1
  %0 = load i64, ptr %i.addr, align 8, !tbaa !70
  %call = call noundef nonnull align 8 dereferenceable(89) ptr @_ZNSt6vectorIN8QuantLib20MarketModelComposite10SubProductESaIS2_EE2atEm(ptr noundef nonnull align 8 dereferenceable(24) %components_, i64 noundef %0)
  %product = getelementptr inbounds nuw %"struct.QuantLib::MarketModelComposite::SubProduct", ptr %call, i32 0, i32 0
  %call2 = call noundef nonnull align 8 dereferenceable(8) ptr @_ZNK8QuantLib5CloneINS_23MarketModelMultiProductEEdeEv(ptr noundef nonnull align 8 dereferenceable(8) %product)
  ret ptr %call2
}