; Function Attrs: mustprogress uwtable
define noundef nonnull align 8 dereferenceable(8) ptr @_ZN8QuantLib20MarketModelComposite4itemEm(ptr nocapture noundef nonnull readonly align 8 dereferenceable(296) %this, i64 noundef %i) local_unnamed_addr #0 align 2 {
entry:
  %components_ = getelementptr inbounds nuw i8, ptr %this, i64 8
  %_M_finish.i.i.i = getelementptr inbounds nuw i8, ptr %this, i64 16
  %0 = load ptr, ptr %_M_finish.i.i.i, align 8, !tbaa !77
  %1 = load ptr, ptr %components_, align 8, !tbaa !104
  %sub.ptr.lhs.cast.i.i.i = ptrtoint ptr %0 to i64
  %sub.ptr.rhs.cast.i.i.i = ptrtoint ptr %1 to i64
  %sub.ptr.sub.i.i.i = sub i64 %sub.ptr.lhs.cast.i.i.i, %sub.ptr.rhs.cast.i.i.i
  %sub.ptr.div.i.i.i = sdiv exact i64 %sub.ptr.sub.i.i.i, 96
  %cmp.not.i.i = icmp ult i64 %i, %sub.ptr.div.i.i.i
  br i1 %cmp.not.i.i, label %_ZNSt6vectorIN8QuantLib20MarketModelComposite10SubProductESaIS2_EE2atEm.exit, label %if.then.i.i

if.then.i.i:                                      ; preds = %entry
  tail call void (ptr, ...) @_ZSt24__throw_out_of_range_fmtPKcz(ptr noundef nonnull @.str.11, i64 noundef %i, i64 noundef %sub.ptr.div.i.i.i) #23
  unreachable

_ZNSt6vectorIN8QuantLib20MarketModelComposite10SubProductESaIS2_EE2atEm.exit: ; preds = %entry
  %add.ptr.i.i = getelementptr inbounds nuw %"struct.QuantLib::MarketModelComposite::SubProduct", ptr %1, i64 %i
  %call2 = tail call noundef nonnull align 8 dereferenceable(8) ptr @_ZNK8QuantLib5CloneINS_23MarketModelMultiProductEEdeEv(ptr noundef nonnull align 8 dereferenceable(8) %add.ptr.i.i)
  ret ptr %call2
}